---
triple:          'arm64-apple-darwin'
binary-path:     '/Users/borislavsvilenov/Projects/CPP/v1/main'
relocations:
  - { offsetInCU: 0xFF2F, offset: 0xFF2F, size: 0x8, addend: 0x0, symName: __ZNSt3__118__debug_db_erase_cB7v160006INS_12basic_stringIjNS_11char_traitsIjEENS_9allocatorIjEEEEEEvPT_, symObjAddr: 0x530, symBinAddr: 0x100003AF0, symSize: 0x10 }
  - { offsetInCU: 0xFF60, offset: 0xFF60, size: 0x8, addend: 0x0, symName: __ZNSt3__119__libcpp_deallocateB7v160006EPvmm, symObjAddr: 0x6AC, symBinAddr: 0x100003C6C, symSize: 0x30 }
  - { offsetInCU: 0xFFA8, offset: 0xFFA8, size: 0x8, addend: 0x0, symName: __ZNSt3__127__do_deallocate_handle_sizeB7v160006IJEEEvPvmDpT_, symObjAddr: 0x6DC, symBinAddr: 0x100003C9C, symSize: 0x28 }
  - { offsetInCU: 0xFFE6, offset: 0xFFE6, size: 0x8, addend: 0x0, symName: __ZNSt3__124__libcpp_operator_deleteB7v160006IJPvEEEvDpT_, symObjAddr: 0x704, symBinAddr: 0x100003CC4, symSize: 0x24 }
  - { offsetInCU: 0x12FF6, offset: 0x12FF6, size: 0x8, addend: 0x0, symName: _main, symObjAddr: 0x0, symBinAddr: 0x1000035C0, symSize: 0x318 }
  - { offsetInCU: 0x1303C, offset: 0x1303C, size: 0x8, addend: 0x0, symName: __ZN2sf15ContextSettingsC1Ejjjjjjb, symObjAddr: 0x318, symBinAddr: 0x1000038D8, symSize: 0x70 }
  - { offsetInCU: 0x130C6, offset: 0x130C6, size: 0x8, addend: 0x0, symName: __ZN2sf6StringD1Ev, symObjAddr: 0x388, symBinAddr: 0x100003948, symSize: 0x2C }
  - { offsetInCU: 0x13217, offset: 0x13217, size: 0x8, addend: 0x0, symName: __ZN2sf11CircleShapeD1Ev, symObjAddr: 0x3B4, symBinAddr: 0x100003974, symSize: 0x2C }
  - { offsetInCU: 0x13242, offset: 0x13242, size: 0x8, addend: 0x0, symName: __ZN2sf15ContextSettingsC2Ejjjjjjb, symObjAddr: 0x3E0, symBinAddr: 0x1000039A0, symSize: 0x74 }
  - { offsetInCU: 0x132CB, offset: 0x132CB, size: 0x8, addend: 0x0, symName: __ZN2sf6StringD2Ev, symObjAddr: 0x454, symBinAddr: 0x100003A14, symSize: 0x2C }
  - { offsetInCU: 0x132F6, offset: 0x132F6, size: 0x8, addend: 0x0, symName: __ZNSt3__112basic_stringIjNS_11char_traitsIjEENS_9allocatorIjEEED1Ev, symObjAddr: 0x480, symBinAddr: 0x100003A40, symSize: 0x2C }
  - { offsetInCU: 0x13320, offset: 0x13320, size: 0x8, addend: 0x0, symName: __ZNSt3__112basic_stringIjNS_11char_traitsIjEENS_9allocatorIjEEED2Ev, symObjAddr: 0x4AC, symBinAddr: 0x100003A6C, symSize: 0x84 }
  - { offsetInCU: 0x1334A, offset: 0x1334A, size: 0x8, addend: 0x0, symName: __ZNKSt3__112basic_stringIjNS_11char_traitsIjEENS_9allocatorIjEEE9__is_longB7v160006Ev, symObjAddr: 0x54C, symBinAddr: 0x100003B0C, symSize: 0x38 }
  - { offsetInCU: 0x1336F, offset: 0x1336F, size: 0x8, addend: 0x0, symName: __ZNSt3__116allocator_traitsINS_9allocatorIjEEE10deallocateB7v160006ERS2_Pjm, symObjAddr: 0x584, symBinAddr: 0x100003B44, symSize: 0x34 }
  - { offsetInCU: 0x133B1, offset: 0x133B1, size: 0x8, addend: 0x0, symName: __ZNSt3__112basic_stringIjNS_11char_traitsIjEENS_9allocatorIjEEE7__allocB7v160006Ev, symObjAddr: 0x5B8, symBinAddr: 0x100003B78, symSize: 0x24 }
  - { offsetInCU: 0x133D6, offset: 0x133D6, size: 0x8, addend: 0x0, symName: __ZNSt3__112basic_stringIjNS_11char_traitsIjEENS_9allocatorIjEEE18__get_long_pointerB7v160006Ev, symObjAddr: 0x5DC, symBinAddr: 0x100003B9C, symSize: 0x28 }
  - { offsetInCU: 0x133FB, offset: 0x133FB, size: 0x8, addend: 0x0, symName: __ZNKSt3__112basic_stringIjNS_11char_traitsIjEENS_9allocatorIjEEE14__get_long_capB7v160006Ev, symObjAddr: 0x604, symBinAddr: 0x100003BC4, symSize: 0x30 }
  - { offsetInCU: 0x13420, offset: 0x13420, size: 0x8, addend: 0x0, symName: __ZNKSt3__117__compressed_pairINS_12basic_stringIjNS_11char_traitsIjEENS_9allocatorIjEEE5__repES5_E5firstB7v160006Ev, symObjAddr: 0x634, symBinAddr: 0x100003BF4, symSize: 0x24 }
  - { offsetInCU: 0x13445, offset: 0x13445, size: 0x8, addend: 0x0, symName: __ZNKSt3__122__compressed_pair_elemINS_12basic_stringIjNS_11char_traitsIjEENS_9allocatorIjEEE5__repELi0ELb0EE5__getB7v160006Ev, symObjAddr: 0x658, symBinAddr: 0x100003C18, symSize: 0x14 }
  - { offsetInCU: 0x1346A, offset: 0x1346A, size: 0x8, addend: 0x0, symName: __ZNSt3__19allocatorIjE10deallocateB7v160006EPjm, symObjAddr: 0x66C, symBinAddr: 0x100003C2C, symSize: 0x40 }
  - { offsetInCU: 0x134AB, offset: 0x134AB, size: 0x8, addend: 0x0, symName: __ZNSt3__117__compressed_pairINS_12basic_stringIjNS_11char_traitsIjEENS_9allocatorIjEEE5__repES5_E6secondB7v160006Ev, symObjAddr: 0x728, symBinAddr: 0x100003CE8, symSize: 0x24 }
  - { offsetInCU: 0x134D0, offset: 0x134D0, size: 0x8, addend: 0x0, symName: __ZNSt3__122__compressed_pair_elemINS_9allocatorIjEELi1ELb1EE5__getB7v160006Ev, symObjAddr: 0x74C, symBinAddr: 0x100003D0C, symSize: 0x14 }
  - { offsetInCU: 0x134F5, offset: 0x134F5, size: 0x8, addend: 0x0, symName: __ZNSt3__117__compressed_pairINS_12basic_stringIjNS_11char_traitsIjEENS_9allocatorIjEEE5__repES5_E5firstB7v160006Ev, symObjAddr: 0x760, symBinAddr: 0x100003D20, symSize: 0x24 }
  - { offsetInCU: 0x1351A, offset: 0x1351A, size: 0x8, addend: 0x0, symName: __ZNSt3__122__compressed_pair_elemINS_12basic_stringIjNS_11char_traitsIjEENS_9allocatorIjEEE5__repELi0ELb0EE5__getB7v160006Ev, symObjAddr: 0x784, symBinAddr: 0x100003D44, symSize: 0x14 }
  - { offsetInCU: 0x1353E, offset: 0x1353E, size: 0x8, addend: 0x0, symName: __ZN2sf11CircleShapeD2Ev, symObjAddr: 0x798, symBinAddr: 0x100003D58, symSize: 0x2C }
  - { offsetInCU: 0x13569, offset: 0x13569, size: 0x8, addend: 0x0, symName: __ZThn8_N2sf11CircleShapeD1Ev, symObjAddr: 0x7C4, symBinAddr: 0x100003D84, symSize: 0x1C }
...
