---
triple:          'arm64-apple-darwin'
binary-path:     '/Users/borislavsvilenov/Projects/CPP/RPG/Temple of the Fallen/main'
relocations:
  - { offsetInCU: 0x10743, offset: 0x10743, size: 0x8, addend: 0x0, symName: __ZNSt3__118__debug_db_erase_cB7v160006INS_12basic_stringIjNS_11char_traitsIjEENS_9allocatorIjEEEEEEvPT_, symObjAddr: 0x530, symBinAddr: 0x100002D20, symSize: 0x10 }
  - { offsetInCU: 0x10774, offset: 0x10774, size: 0x8, addend: 0x0, symName: __ZNSt3__119__libcpp_deallocateB7v160006EPvmm, symObjAddr: 0x6AC, symBinAddr: 0x100002E9C, symSize: 0x30 }
  - { offsetInCU: 0x107BC, offset: 0x107BC, size: 0x8, addend: 0x0, symName: __ZNSt3__127__do_deallocate_handle_sizeB7v160006IJEEEvPvmDpT_, symObjAddr: 0x6DC, symBinAddr: 0x100002ECC, symSize: 0x28 }
  - { offsetInCU: 0x107FA, offset: 0x107FA, size: 0x8, addend: 0x0, symName: __ZNSt3__124__libcpp_operator_deleteB7v160006IJPvEEEvDpT_, symObjAddr: 0x704, symBinAddr: 0x100002EF4, symSize: 0x24 }
  - { offsetInCU: 0x1082F, offset: 0x1082F, size: 0x8, addend: 0x0, symName: __ZNSt3__119__debug_db_insert_cB7v160006INS_6vectorI4RectNS_9allocatorIS2_EEEEEEvPT_, symObjAddr: 0x82C, symBinAddr: 0x10000301C, symSize: 0x10 }
  - { offsetInCU: 0x10860, offset: 0x10860, size: 0x8, addend: 0x0, symName: __ZNSt3__118__debug_db_erase_cB7v160006INS_6vectorI4RectNS_9allocatorIS2_EEEEEEvPT_, symObjAddr: 0xAF0, symBinAddr: 0x1000032E0, symSize: 0x10 }
  - { offsetInCU: 0x10891, offset: 0x10891, size: 0x8, addend: 0x0, symName: __ZNSt3__112__to_addressB7v160006I4RectEEPT_S3_, symObjAddr: 0xC34, symBinAddr: 0x100003424, symSize: 0x14 }
  - { offsetInCU: 0x108C6, offset: 0x108C6, size: 0x8, addend: 0x0, symName: __ZNSt3__119__debug_db_insert_cB7v160006INS_6vectorI6CircleNS_9allocatorIS2_EEEEEEvPT_, symObjAddr: 0xE80, symBinAddr: 0x100003670, symSize: 0x10 }
  - { offsetInCU: 0x108F7, offset: 0x108F7, size: 0x8, addend: 0x0, symName: __ZNSt3__118__debug_db_erase_cB7v160006INS_6vectorI6CircleNS_9allocatorIS2_EEEEEEvPT_, symObjAddr: 0x1160, symBinAddr: 0x100003950, symSize: 0x10 }
  - { offsetInCU: 0x10928, offset: 0x10928, size: 0x8, addend: 0x0, symName: __ZNSt3__112__to_addressB7v160006I6CircleEEPT_S3_, symObjAddr: 0x12A4, symBinAddr: 0x100003A94, symSize: 0x14 }
  - { offsetInCU: 0x13C5C, offset: 0x13C5C, size: 0x8, addend: 0x0, symName: _main, symObjAddr: 0x0, symBinAddr: 0x1000027F0, symSize: 0x294 }
  - { offsetInCU: 0x13CB0, offset: 0x13CB0, size: 0x8, addend: 0x0, symName: __ZN2sf15ContextSettingsC1Ejjjjjjb, symObjAddr: 0x294, symBinAddr: 0x100002A84, symSize: 0x70 }
  - { offsetInCU: 0x13D3B, offset: 0x13D3B, size: 0x8, addend: 0x0, symName: __ZN2sf6StringD1Ev, symObjAddr: 0x304, symBinAddr: 0x100002AF4, symSize: 0x2C }
  - { offsetInCU: 0x13D64, offset: 0x13D64, size: 0x8, addend: 0x0, symName: __ZNSt3__16vectorI4RectNS_9allocatorIS1_EEEC1B7v160006Ev, symObjAddr: 0x330, symBinAddr: 0x100002B20, symSize: 0x2C }
  - { offsetInCU: 0x13D8C, offset: 0x13D8C, size: 0x8, addend: 0x0, symName: __ZNSt3__16vectorI6CircleNS_9allocatorIS1_EEEC1B7v160006Ev, symObjAddr: 0x35C, symBinAddr: 0x100002B4C, symSize: 0x2C }
  - { offsetInCU: 0x13DB4, offset: 0x13DB4, size: 0x8, addend: 0x0, symName: __ZNSt3__16vectorI6CircleNS_9allocatorIS1_EEED1B7v160006Ev, symObjAddr: 0x388, symBinAddr: 0x100002B78, symSize: 0x2C }
  - { offsetInCU: 0x13DDC, offset: 0x13DDC, size: 0x8, addend: 0x0, symName: __ZNSt3__16vectorI4RectNS_9allocatorIS1_EEED1B7v160006Ev, symObjAddr: 0x3B4, symBinAddr: 0x100002BA4, symSize: 0x2C }
  - { offsetInCU: 0x13E05, offset: 0x13E05, size: 0x8, addend: 0x0, symName: __ZN2sf15ContextSettingsC2Ejjjjjjb, symObjAddr: 0x3E0, symBinAddr: 0x100002BD0, symSize: 0x74 }
  - { offsetInCU: 0x13E8F, offset: 0x13E8F, size: 0x8, addend: 0x0, symName: __ZN2sf6StringD2Ev, symObjAddr: 0x454, symBinAddr: 0x100002C44, symSize: 0x2C }
  - { offsetInCU: 0x13EB9, offset: 0x13EB9, size: 0x8, addend: 0x0, symName: __ZNSt3__112basic_stringIjNS_11char_traitsIjEENS_9allocatorIjEEED1Ev, symObjAddr: 0x480, symBinAddr: 0x100002C70, symSize: 0x2C }
  - { offsetInCU: 0x13EE4, offset: 0x13EE4, size: 0x8, addend: 0x0, symName: __ZNSt3__112basic_stringIjNS_11char_traitsIjEENS_9allocatorIjEEED2Ev, symObjAddr: 0x4AC, symBinAddr: 0x100002C9C, symSize: 0x84 }
  - { offsetInCU: 0x13F0F, offset: 0x13F0F, size: 0x8, addend: 0x0, symName: __ZNKSt3__112basic_stringIjNS_11char_traitsIjEENS_9allocatorIjEEE9__is_longB7v160006Ev, symObjAddr: 0x54C, symBinAddr: 0x100002D3C, symSize: 0x38 }
  - { offsetInCU: 0x13F34, offset: 0x13F34, size: 0x8, addend: 0x0, symName: __ZNSt3__116allocator_traitsINS_9allocatorIjEEE10deallocateB7v160006ERS2_Pjm, symObjAddr: 0x584, symBinAddr: 0x100002D74, symSize: 0x34 }
  - { offsetInCU: 0x13F76, offset: 0x13F76, size: 0x8, addend: 0x0, symName: __ZNSt3__112basic_stringIjNS_11char_traitsIjEENS_9allocatorIjEEE7__allocB7v160006Ev, symObjAddr: 0x5B8, symBinAddr: 0x100002DA8, symSize: 0x24 }
  - { offsetInCU: 0x13F9B, offset: 0x13F9B, size: 0x8, addend: 0x0, symName: __ZNSt3__112basic_stringIjNS_11char_traitsIjEENS_9allocatorIjEEE18__get_long_pointerB7v160006Ev, symObjAddr: 0x5DC, symBinAddr: 0x100002DCC, symSize: 0x28 }
  - { offsetInCU: 0x13FC0, offset: 0x13FC0, size: 0x8, addend: 0x0, symName: __ZNKSt3__112basic_stringIjNS_11char_traitsIjEENS_9allocatorIjEEE14__get_long_capB7v160006Ev, symObjAddr: 0x604, symBinAddr: 0x100002DF4, symSize: 0x30 }
  - { offsetInCU: 0x13FE5, offset: 0x13FE5, size: 0x8, addend: 0x0, symName: __ZNKSt3__117__compressed_pairINS_12basic_stringIjNS_11char_traitsIjEENS_9allocatorIjEEE5__repES5_E5firstB7v160006Ev, symObjAddr: 0x634, symBinAddr: 0x100002E24, symSize: 0x24 }
  - { offsetInCU: 0x1400A, offset: 0x1400A, size: 0x8, addend: 0x0, symName: __ZNKSt3__122__compressed_pair_elemINS_12basic_stringIjNS_11char_traitsIjEENS_9allocatorIjEEE5__repELi0ELb0EE5__getB7v160006Ev, symObjAddr: 0x658, symBinAddr: 0x100002E48, symSize: 0x14 }
  - { offsetInCU: 0x1402F, offset: 0x1402F, size: 0x8, addend: 0x0, symName: __ZNSt3__19allocatorIjE10deallocateB7v160006EPjm, symObjAddr: 0x66C, symBinAddr: 0x100002E5C, symSize: 0x40 }
  - { offsetInCU: 0x14070, offset: 0x14070, size: 0x8, addend: 0x0, symName: __ZNSt3__117__compressed_pairINS_12basic_stringIjNS_11char_traitsIjEENS_9allocatorIjEEE5__repES5_E6secondB7v160006Ev, symObjAddr: 0x728, symBinAddr: 0x100002F18, symSize: 0x24 }
  - { offsetInCU: 0x14095, offset: 0x14095, size: 0x8, addend: 0x0, symName: __ZNSt3__122__compressed_pair_elemINS_9allocatorIjEELi1ELb1EE5__getB7v160006Ev, symObjAddr: 0x74C, symBinAddr: 0x100002F3C, symSize: 0x14 }
  - { offsetInCU: 0x140BA, offset: 0x140BA, size: 0x8, addend: 0x0, symName: __ZNSt3__117__compressed_pairINS_12basic_stringIjNS_11char_traitsIjEENS_9allocatorIjEEE5__repES5_E5firstB7v160006Ev, symObjAddr: 0x760, symBinAddr: 0x100002F50, symSize: 0x24 }
  - { offsetInCU: 0x140DF, offset: 0x140DF, size: 0x8, addend: 0x0, symName: __ZNSt3__122__compressed_pair_elemINS_12basic_stringIjNS_11char_traitsIjEENS_9allocatorIjEEE5__repELi0ELb0EE5__getB7v160006Ev, symObjAddr: 0x784, symBinAddr: 0x100002F74, symSize: 0x14 }
  - { offsetInCU: 0x14103, offset: 0x14103, size: 0x8, addend: 0x0, symName: __ZNSt3__16vectorI4RectNS_9allocatorIS1_EEEC2B7v160006Ev, symObjAddr: 0x798, symBinAddr: 0x100002F88, symSize: 0x58 }
  - { offsetInCU: 0x14135, offset: 0x14135, size: 0x8, addend: 0x0, symName: __ZNSt3__117__compressed_pairIP4RectNS_9allocatorIS1_EEEC1B7v160006IDnNS_18__default_init_tagEEEOT_OT0_, symObjAddr: 0x7F0, symBinAddr: 0x100002FE0, symSize: 0x3C }
  - { offsetInCU: 0x1418B, offset: 0x1418B, size: 0x8, addend: 0x0, symName: __ZNSt3__117__compressed_pairIP4RectNS_9allocatorIS1_EEEC2B7v160006IDnNS_18__default_init_tagEEEOT_OT0_, symObjAddr: 0x83C, symBinAddr: 0x10000302C, symSize: 0x40 }
  - { offsetInCU: 0x141E2, offset: 0x141E2, size: 0x8, addend: 0x0, symName: __ZNSt3__122__compressed_pair_elemIP4RectLi0ELb0EEC2B7v160006IDnvEEOT_, symObjAddr: 0x87C, symBinAddr: 0x10000306C, symSize: 0x1C }
  - { offsetInCU: 0x14221, offset: 0x14221, size: 0x8, addend: 0x0, symName: __ZNSt3__122__compressed_pair_elemINS_9allocatorI4RectEELi1ELb1EEC2B7v160006ENS_18__default_init_tagE, symObjAddr: 0x898, symBinAddr: 0x100003088, symSize: 0x2C }
  - { offsetInCU: 0x14254, offset: 0x14254, size: 0x8, addend: 0x0, symName: __ZNSt3__19allocatorI4RectEC2B7v160006Ev, symObjAddr: 0x8C4, symBinAddr: 0x1000030B4, symSize: 0x2C }
  - { offsetInCU: 0x1427D, offset: 0x1427D, size: 0x8, addend: 0x0, symName: __ZNSt3__116__non_trivial_ifILb1ENS_9allocatorI4RectEEEC2B7v160006Ev, symObjAddr: 0x8F0, symBinAddr: 0x1000030E0, symSize: 0x14 }
  - { offsetInCU: 0x142A4, offset: 0x142A4, size: 0x8, addend: 0x0, symName: __ZNSt3__16vectorI4RectNS_9allocatorIS1_EEED2B7v160006Ev, symObjAddr: 0x904, symBinAddr: 0x1000030F4, symSize: 0x44 }
  - { offsetInCU: 0x142CC, offset: 0x142CC, size: 0x8, addend: 0x0, symName: __ZNSt3__16vectorI4RectNS_9allocatorIS1_EEE16__destroy_vectorC1ERS4_, symObjAddr: 0x948, symBinAddr: 0x100003138, symSize: 0x34 }
  - { offsetInCU: 0x14304, offset: 0x14304, size: 0x8, addend: 0x0, symName: __ZNSt3__16vectorI4RectNS_9allocatorIS1_EEE16__destroy_vectorclB7v160006Ev, symObjAddr: 0x97C, symBinAddr: 0x10000316C, symSize: 0x9C }
  - { offsetInCU: 0x14329, offset: 0x14329, size: 0x8, addend: 0x0, symName: __ZNSt3__16vectorI4RectNS_9allocatorIS1_EEE16__destroy_vectorC2ERS4_, symObjAddr: 0xA18, symBinAddr: 0x100003208, symSize: 0x20 }
  - { offsetInCU: 0x14360, offset: 0x14360, size: 0x8, addend: 0x0, symName: __ZNKSt3__16vectorI4RectNS_9allocatorIS1_EEE17__annotate_deleteB7v160006Ev, symObjAddr: 0xA38, symBinAddr: 0x100003228, symSize: 0xB8 }
  - { offsetInCU: 0x14385, offset: 0x14385, size: 0x8, addend: 0x0, symName: __ZNSt3__16vectorI4RectNS_9allocatorIS1_EEE7__clearB7v160006Ev, symObjAddr: 0xB00, symBinAddr: 0x1000032F0, symSize: 0x28 }
  - { offsetInCU: 0x143AA, offset: 0x143AA, size: 0x8, addend: 0x0, symName: __ZNSt3__116allocator_traitsINS_9allocatorI4RectEEE10deallocateB7v160006ERS3_PS2_m, symObjAddr: 0xB28, symBinAddr: 0x100003318, symSize: 0x34 }
  - { offsetInCU: 0x143EC, offset: 0x143EC, size: 0x8, addend: 0x0, symName: __ZNSt3__16vectorI4RectNS_9allocatorIS1_EEE7__allocB7v160006Ev, symObjAddr: 0xB5C, symBinAddr: 0x10000334C, symSize: 0x28 }
  - { offsetInCU: 0x14411, offset: 0x14411, size: 0x8, addend: 0x0, symName: __ZNKSt3__16vectorI4RectNS_9allocatorIS1_EEE8capacityB7v160006Ev, symObjAddr: 0xB84, symBinAddr: 0x100003374, symSize: 0x40 }
  - { offsetInCU: 0x14436, offset: 0x14436, size: 0x8, addend: 0x0, symName: __ZNKSt3__16vectorI4RectNS_9allocatorIS1_EEE31__annotate_contiguous_containerB7v160006EPKvS6_S6_S6_, symObjAddr: 0xBC4, symBinAddr: 0x1000033B4, symSize: 0x20 }
  - { offsetInCU: 0x1448B, offset: 0x1448B, size: 0x8, addend: 0x0, symName: __ZNKSt3__16vectorI4RectNS_9allocatorIS1_EEE4dataB7v160006Ev, symObjAddr: 0xBE4, symBinAddr: 0x1000033D4, symSize: 0x28 }
  - { offsetInCU: 0x144B0, offset: 0x144B0, size: 0x8, addend: 0x0, symName: __ZNKSt3__16vectorI4RectNS_9allocatorIS1_EEE4sizeB7v160006Ev, symObjAddr: 0xC0C, symBinAddr: 0x1000033FC, symSize: 0x28 }
  - { offsetInCU: 0x144D5, offset: 0x144D5, size: 0x8, addend: 0x0, symName: __ZNSt3__16vectorI4RectNS_9allocatorIS1_EEE22__base_destruct_at_endB7v160006EPS1_, symObjAddr: 0xC48, symBinAddr: 0x100003438, symSize: 0x8C }
  - { offsetInCU: 0x14519, offset: 0x14519, size: 0x8, addend: 0x0, symName: __ZNSt3__116allocator_traitsINS_9allocatorI4RectEEE7destroyB7v160006IS2_vEEvRS3_PT_, symObjAddr: 0xCD4, symBinAddr: 0x1000034C4, symSize: 0x2C }
  - { offsetInCU: 0x14556, offset: 0x14556, size: 0x8, addend: 0x0, symName: __ZNSt3__19allocatorI4RectE7destroyB7v160006EPS1_, symObjAddr: 0xD00, symBinAddr: 0x1000034F0, symSize: 0x14 }
  - { offsetInCU: 0x14589, offset: 0x14589, size: 0x8, addend: 0x0, symName: __ZNSt3__19allocatorI4RectE10deallocateB7v160006EPS1_m, symObjAddr: 0xD14, symBinAddr: 0x100003504, symSize: 0x40 }
  - { offsetInCU: 0x145CA, offset: 0x145CA, size: 0x8, addend: 0x0, symName: __ZNSt3__117__compressed_pairIP4RectNS_9allocatorIS1_EEE6secondB7v160006Ev, symObjAddr: 0xD54, symBinAddr: 0x100003544, symSize: 0x24 }
  - { offsetInCU: 0x145EF, offset: 0x145EF, size: 0x8, addend: 0x0, symName: __ZNSt3__122__compressed_pair_elemINS_9allocatorI4RectEELi1ELb1EE5__getB7v160006Ev, symObjAddr: 0xD78, symBinAddr: 0x100003568, symSize: 0x14 }
  - { offsetInCU: 0x14614, offset: 0x14614, size: 0x8, addend: 0x0, symName: __ZNKSt3__16vectorI4RectNS_9allocatorIS1_EEE9__end_capB7v160006Ev, symObjAddr: 0xD8C, symBinAddr: 0x10000357C, symSize: 0x28 }
  - { offsetInCU: 0x14639, offset: 0x14639, size: 0x8, addend: 0x0, symName: __ZNKSt3__117__compressed_pairIP4RectNS_9allocatorIS1_EEE5firstB7v160006Ev, symObjAddr: 0xDB4, symBinAddr: 0x1000035A4, symSize: 0x24 }
  - { offsetInCU: 0x1465E, offset: 0x1465E, size: 0x8, addend: 0x0, symName: __ZNKSt3__122__compressed_pair_elemIP4RectLi0ELb0EE5__getB7v160006Ev, symObjAddr: 0xDD8, symBinAddr: 0x1000035C8, symSize: 0x14 }
  - { offsetInCU: 0x14682, offset: 0x14682, size: 0x8, addend: 0x0, symName: __ZNSt3__16vectorI6CircleNS_9allocatorIS1_EEEC2B7v160006Ev, symObjAddr: 0xDEC, symBinAddr: 0x1000035DC, symSize: 0x58 }
  - { offsetInCU: 0x146AA, offset: 0x146AA, size: 0x8, addend: 0x0, symName: __ZNSt3__117__compressed_pairIP6CircleNS_9allocatorIS1_EEEC1B7v160006IDnNS_18__default_init_tagEEEOT_OT0_, symObjAddr: 0xE44, symBinAddr: 0x100003634, symSize: 0x3C }
  - { offsetInCU: 0x14700, offset: 0x14700, size: 0x8, addend: 0x0, symName: __ZNSt3__117__compressed_pairIP6CircleNS_9allocatorIS1_EEEC2B7v160006IDnNS_18__default_init_tagEEEOT_OT0_, symObjAddr: 0xE90, symBinAddr: 0x100003680, symSize: 0x40 }
  - { offsetInCU: 0x14757, offset: 0x14757, size: 0x8, addend: 0x0, symName: __ZNSt3__122__compressed_pair_elemIP6CircleLi0ELb0EEC2B7v160006IDnvEEOT_, symObjAddr: 0xED0, symBinAddr: 0x1000036C0, symSize: 0x1C }
  - { offsetInCU: 0x14796, offset: 0x14796, size: 0x8, addend: 0x0, symName: __ZNSt3__122__compressed_pair_elemINS_9allocatorI6CircleEELi1ELb1EEC2B7v160006ENS_18__default_init_tagE, symObjAddr: 0xEEC, symBinAddr: 0x1000036DC, symSize: 0x2C }
  - { offsetInCU: 0x147C9, offset: 0x147C9, size: 0x8, addend: 0x0, symName: __ZNSt3__19allocatorI6CircleEC2B7v160006Ev, symObjAddr: 0xF18, symBinAddr: 0x100003708, symSize: 0x2C }
  - { offsetInCU: 0x147F2, offset: 0x147F2, size: 0x8, addend: 0x0, symName: __ZNSt3__116__non_trivial_ifILb1ENS_9allocatorI6CircleEEEC2B7v160006Ev, symObjAddr: 0xF44, symBinAddr: 0x100003734, symSize: 0x14 }
  - { offsetInCU: 0x14819, offset: 0x14819, size: 0x8, addend: 0x0, symName: __ZNSt3__16vectorI6CircleNS_9allocatorIS1_EEED2B7v160006Ev, symObjAddr: 0xF58, symBinAddr: 0x100003748, symSize: 0x44 }
  - { offsetInCU: 0x14841, offset: 0x14841, size: 0x8, addend: 0x0, symName: __ZNSt3__16vectorI6CircleNS_9allocatorIS1_EEE16__destroy_vectorC1ERS4_, symObjAddr: 0xF9C, symBinAddr: 0x10000378C, symSize: 0x34 }
  - { offsetInCU: 0x14879, offset: 0x14879, size: 0x8, addend: 0x0, symName: __ZNSt3__16vectorI6CircleNS_9allocatorIS1_EEE16__destroy_vectorclB7v160006Ev, symObjAddr: 0xFD0, symBinAddr: 0x1000037C0, symSize: 0x9C }
  - { offsetInCU: 0x1489E, offset: 0x1489E, size: 0x8, addend: 0x0, symName: __ZNSt3__16vectorI6CircleNS_9allocatorIS1_EEE16__destroy_vectorC2ERS4_, symObjAddr: 0x106C, symBinAddr: 0x10000385C, symSize: 0x20 }
  - { offsetInCU: 0x148D5, offset: 0x148D5, size: 0x8, addend: 0x0, symName: __ZNKSt3__16vectorI6CircleNS_9allocatorIS1_EEE17__annotate_deleteB7v160006Ev, symObjAddr: 0x108C, symBinAddr: 0x10000387C, symSize: 0xD4 }
  - { offsetInCU: 0x148FA, offset: 0x148FA, size: 0x8, addend: 0x0, symName: __ZNSt3__16vectorI6CircleNS_9allocatorIS1_EEE7__clearB7v160006Ev, symObjAddr: 0x1170, symBinAddr: 0x100003960, symSize: 0x28 }
  - { offsetInCU: 0x1491F, offset: 0x1491F, size: 0x8, addend: 0x0, symName: __ZNSt3__116allocator_traitsINS_9allocatorI6CircleEEE10deallocateB7v160006ERS3_PS2_m, symObjAddr: 0x1198, symBinAddr: 0x100003988, symSize: 0x34 }
  - { offsetInCU: 0x14961, offset: 0x14961, size: 0x8, addend: 0x0, symName: __ZNSt3__16vectorI6CircleNS_9allocatorIS1_EEE7__allocB7v160006Ev, symObjAddr: 0x11CC, symBinAddr: 0x1000039BC, symSize: 0x28 }
  - { offsetInCU: 0x14986, offset: 0x14986, size: 0x8, addend: 0x0, symName: __ZNKSt3__16vectorI6CircleNS_9allocatorIS1_EEE8capacityB7v160006Ev, symObjAddr: 0x11F4, symBinAddr: 0x1000039E4, symSize: 0x40 }
  - { offsetInCU: 0x149AB, offset: 0x149AB, size: 0x8, addend: 0x0, symName: __ZNKSt3__16vectorI6CircleNS_9allocatorIS1_EEE31__annotate_contiguous_containerB7v160006EPKvS6_S6_S6_, symObjAddr: 0x1234, symBinAddr: 0x100003A24, symSize: 0x20 }
  - { offsetInCU: 0x14A00, offset: 0x14A00, size: 0x8, addend: 0x0, symName: __ZNKSt3__16vectorI6CircleNS_9allocatorIS1_EEE4dataB7v160006Ev, symObjAddr: 0x1254, symBinAddr: 0x100003A44, symSize: 0x28 }
  - { offsetInCU: 0x14A25, offset: 0x14A25, size: 0x8, addend: 0x0, symName: __ZNKSt3__16vectorI6CircleNS_9allocatorIS1_EEE4sizeB7v160006Ev, symObjAddr: 0x127C, symBinAddr: 0x100003A6C, symSize: 0x28 }
  - { offsetInCU: 0x14A4A, offset: 0x14A4A, size: 0x8, addend: 0x0, symName: __ZNSt3__16vectorI6CircleNS_9allocatorIS1_EEE22__base_destruct_at_endB7v160006EPS1_, symObjAddr: 0x12B8, symBinAddr: 0x100003AA8, symSize: 0x8C }
  - { offsetInCU: 0x14A8E, offset: 0x14A8E, size: 0x8, addend: 0x0, symName: __ZNSt3__116allocator_traitsINS_9allocatorI6CircleEEE7destroyB7v160006IS2_vEEvRS3_PT_, symObjAddr: 0x1344, symBinAddr: 0x100003B34, symSize: 0x2C }
  - { offsetInCU: 0x14ACB, offset: 0x14ACB, size: 0x8, addend: 0x0, symName: __ZNSt3__19allocatorI6CircleE7destroyB7v160006EPS1_, symObjAddr: 0x1370, symBinAddr: 0x100003B60, symSize: 0x14 }
  - { offsetInCU: 0x14AFE, offset: 0x14AFE, size: 0x8, addend: 0x0, symName: __ZNSt3__19allocatorI6CircleE10deallocateB7v160006EPS1_m, symObjAddr: 0x1384, symBinAddr: 0x100003B74, symSize: 0x44 }
  - { offsetInCU: 0x14B3F, offset: 0x14B3F, size: 0x8, addend: 0x0, symName: __ZNSt3__117__compressed_pairIP6CircleNS_9allocatorIS1_EEE6secondB7v160006Ev, symObjAddr: 0x13C8, symBinAddr: 0x100003BB8, symSize: 0x24 }
  - { offsetInCU: 0x14B64, offset: 0x14B64, size: 0x8, addend: 0x0, symName: __ZNSt3__122__compressed_pair_elemINS_9allocatorI6CircleEELi1ELb1EE5__getB7v160006Ev, symObjAddr: 0x13EC, symBinAddr: 0x100003BDC, symSize: 0x14 }
  - { offsetInCU: 0x14B89, offset: 0x14B89, size: 0x8, addend: 0x0, symName: __ZNKSt3__16vectorI6CircleNS_9allocatorIS1_EEE9__end_capB7v160006Ev, symObjAddr: 0x1400, symBinAddr: 0x100003BF0, symSize: 0x28 }
  - { offsetInCU: 0x14BAE, offset: 0x14BAE, size: 0x8, addend: 0x0, symName: __ZNKSt3__117__compressed_pairIP6CircleNS_9allocatorIS1_EEE5firstB7v160006Ev, symObjAddr: 0x1428, symBinAddr: 0x100003C18, symSize: 0x24 }
  - { offsetInCU: 0x14BD3, offset: 0x14BD3, size: 0x8, addend: 0x0, symName: __ZNKSt3__122__compressed_pair_elemIP6CircleLi0ELb0EE5__getB7v160006Ev, symObjAddr: 0x144C, symBinAddr: 0x100003C3C, symSize: 0x14 }
...
